target datalayout = "e-m:e-p270:32:32-p271:32:32-p272:64:64-i64:64-i128:128-f80:128-n8:16:32:64-S128"
target triple = "x86_64-pc-linux-gnu"

%"class.base::Time" = type { %"class.base::time_internal::TimeBase" }
%"class.base::time_internal::TimeBase" = type { i64 }
%struct.timeval = type { i64, i64 }
%"class.logging::LogMessage" = type <{ i32, [4 x i8], %"class.std::__cxx11::basic_ostringstream", i64, ptr, i32, [4 x i8] }>
%"class.std::__cxx11::basic_ostringstream" = type { %"class.std::basic_ostream.base", %"class.std::__cxx11::basic_stringbuf", %"class.std::basic_ios" }
%"class.std::basic_ostream.base" = type { ptr }
%"class.std::__cxx11::basic_stringbuf" = type { %"class.std::basic_streambuf", i32, %"class.std::__cxx11::basic_string" }
%"class.std::basic_streambuf" = type { ptr, ptr, ptr, ptr, ptr, ptr, ptr, %"class.std::locale" }
%"class.std::locale" = type { ptr }
%"class.std::__cxx11::basic_string" = type { %"struct.std::__cxx11::basic_string<char>::_Alloc_hider", i64, %union.anon }
%"struct.std::__cxx11::basic_string<char>::_Alloc_hider" = type { ptr }
%union.anon = type { i64, [8 x i8] }
%"class.std::basic_ios" = type { %"class.std::ios_base", ptr, i8, i8, ptr, ptr, ptr, ptr }
%"class.std::ios_base" = type { ptr, i64, i64, i32, i32, i32, ptr, %"struct.std::ios_base::_Words", [8 x %"struct.std::ios_base::_Words"], i32, ptr, %"class.std::locale" }
%"struct.std::ios_base::_Words" = type { ptr, i64 }
%"class.logging::CheckOpResult" = type { ptr }

@.str = private unnamed_addr constant [121 x i8] c"generated/home/dtcxzyw/WorkSpace/Projects/compilers/llvm-opt-benchmark/bench/libquic/libquic/src/base/time/time_posix.cc\00", align 1

; Function Attrs: mustprogress nounwind uwtable
define linkonce_odr void @_ZN4base13time_internal8TimeBaseINS_4TimeEEC2El(ptr noundef nonnull align 8 dereferenceable(8) %0, i64 noundef %1) unnamed_addr #5 comdat align 2 {
  %3 = alloca ptr, align 8
  %4 = alloca i64, align 8
  store ptr %0, ptr %3, align 8, !tbaa !76
  store i64 %1, ptr %4, align 8, !tbaa !8
  %5 = load ptr, ptr %3, align 8
  %6 = getelementptr inbounds nuw %"class.base::time_internal::TimeBase", ptr %5, i32 0, i32 0
  %7 = load i64, ptr %4, align 8, !tbaa !8
  store i64 %7, ptr %6, align 8, !tbaa !32
  ret void
}

; Function Attrs: mustprogress nounwind uwtable
define linkonce_odr void @_ZN4base4TimeC2El(ptr noundef nonnull align 8 dereferenceable(8) %0, i64 noundef %1) unnamed_addr #5 comdat align 2 {
  %3 = alloca ptr, align 8
  %4 = alloca i64, align 8
  store ptr %0, ptr %3, align 8, !tbaa !26
  store i64 %1, ptr %4, align 8, !tbaa !8
  %5 = load ptr, ptr %3, align 8
  %6 = load i64, ptr %4, align 8, !tbaa !8
  call void @_ZN4base13time_internal8TimeBaseINS_4TimeEEC2El(ptr noundef nonnull align 8 dereferenceable(8) %5, i64 noundef %6)
  ret void
}

; Function Attrs: mustprogress uwtable
define linkonce_odr i64 @_ZN4base13time_internal8TimeBaseINS_4TimeEE3MaxEv() #0 comdat align 2 {
  %1 = alloca %"class.base::Time", align 8
  %2 = call noundef i64 @_ZNSt14numeric_limitsIlE3maxEv() #11
  call void @_ZN4base4TimeC2El(ptr noundef nonnull align 8 dereferenceable(8) %1, i64 noundef %2)
  %3 = getelementptr inbounds nuw %"class.base::Time", ptr %1, i32 0, i32 0
  %4 = getelementptr inbounds nuw %"class.base::time_internal::TimeBase", ptr %3, i32 0, i32 0
  %5 = load i64, ptr %4, align 8
  ret i64 %5
}

; Function Attrs: mustprogress nounwind uwtable
define linkonce_odr noundef i64 @_ZNSt14numeric_limitsIlE3maxEv() #5 comdat align 2 {
  ret i64 9223372036854775807
}

; Function Attrs: mustprogress uwtable
define linkonce_odr void @_ZN4base4TimeC2Ev(ptr noundef nonnull align 8 dereferenceable(8) %0) unnamed_addr #0 comdat align 2 {
  %2 = alloca ptr, align 8
  store ptr %0, ptr %2, align 8, !tbaa !26
  %3 = load ptr, ptr %2, align 8
  call void @_ZN4base13time_internal8TimeBaseINS_4TimeEEC2El(ptr noundef nonnull align 8 dereferenceable(8) %3, i64 noundef 0)
  ret void
}

; Function Attrs: mustprogress nounwind uwtable
define linkonce_odr noundef nonnull align 8 dereferenceable(8) ptr @_ZN7logging10LogMessage6streamEv(ptr noundef nonnull align 8 dereferenceable(404) %0) #5 comdat align 2 {
  %2 = alloca ptr, align 8
  store ptr %0, ptr %2, align 8, !tbaa !74
  %3 = load ptr, ptr %2, align 8
  %4 = getelementptr inbounds nuw %"class.logging::LogMessage", ptr %3, i32 0, i32 2
  ret ptr %4
}

; Function Attrs: mustprogress nounwind uwtable
define linkonce_odr noundef ptr @_ZN7logging13CheckOpResult7messageB5cxx11Ev(ptr noundef nonnull align 8 dereferenceable(8) %0) #5 comdat align 2 {
  %2 = alloca ptr, align 8
  store ptr %0, ptr %2, align 8, !tbaa !68
  %3 = load ptr, ptr %2, align 8
  %4 = getelementptr inbounds nuw %"class.logging::CheckOpResult", ptr %3, i32 0, i32 0
  %5 = load ptr, ptr %4, align 8, !tbaa !72
  ret ptr %5
}

; Function Attrs: mustprogress nounwind uwtable
define linkonce_odr noundef zeroext i1 @_ZNK7logging13CheckOpResultcvbEv(ptr noundef nonnull align 8 dereferenceable(8) %0) #5 comdat align 2 {
  %2 = alloca ptr, align 8
  store ptr %0, ptr %2, align 8, !tbaa !68
  %3 = load ptr, ptr %2, align 8
  %4 = getelementptr inbounds nuw %"class.logging::CheckOpResult", ptr %3, i32 0, i32 0
  %5 = load ptr, ptr %4, align 8, !tbaa !72
  %6 = icmp ne ptr %5, null
  %7 = xor i1 %6, true
  ret i1 %7
}

; Function Attrs: mustprogress nounwind uwtable
define linkonce_odr void @_ZN7logging13CheckOpResultC2EPNSt7__cxx1112basic_stringIcSt11char_traitsIcESaIcEEE(ptr noundef nonnull align 8 dereferenceable(8) %0, ptr noundef %1) unnamed_addr #5 comdat align 2 {
  %3 = alloca ptr, align 8
  %4 = alloca ptr, align 8
  store ptr %0, ptr %3, align 8, !tbaa !68
  store ptr %1, ptr %4, align 8, !tbaa !70
  %5 = load ptr, ptr %3, align 8
  %6 = getelementptr inbounds nuw %"class.logging::CheckOpResult", ptr %5, i32 0, i32 0
  %7 = load ptr, ptr %4, align 8, !tbaa !70
  store ptr %7, ptr %6, align 8, !tbaa !72
  ret void
}

; Function Attrs: mustprogress uwtable
define i64 @_ZN4base4Time11FromTimeValE7timeval(i64 %0, i64 %1) #0 align 2 personality ptr @__gxx_personality_v0 {
  %3 = alloca %"class.base::Time", align 8
  %4 = alloca %struct.timeval, align 8
  %5 = alloca %"class.logging::CheckOpResult", align 8
  %6 = alloca %"class.logging::LogMessage", align 8
  %7 = alloca ptr, align 8
  %8 = alloca i32, align 4
  %9 = alloca %"class.logging::CheckOpResult", align 8
  %10 = alloca %"class.logging::LogMessage", align 8
  %11 = getelementptr inbounds nuw { i64, i64 }, ptr %4, i32 0, i32 0
  store i64 %0, ptr %11, align 8
  %12 = getelementptr inbounds nuw { i64, i64 }, ptr %4, i32 0, i32 1
  store i64 %1, ptr %12, align 8
  call void @llvm.lifetime.start.p0(i64 8, ptr %5) #11
  call void @_ZN7logging13CheckOpResultC2EPNSt7__cxx1112basic_stringIcSt11char_traitsIcESaIcEEE(ptr noundef nonnull align 8 dereferenceable(8) %5, ptr noundef null)
  %13 = call noundef zeroext i1 @_ZNK7logging13CheckOpResultcvbEv(ptr noundef nonnull align 8 dereferenceable(8) %5)
  br i1 %13, label %14, label %15

14:                                               ; preds = %2
  br label %23

15:                                               ; preds = %2
  call void @llvm.lifetime.start.p0(i64 408, ptr %6) #11
  %16 = call noundef ptr @_ZN7logging13CheckOpResult7messageB5cxx11Ev(ptr noundef nonnull align 8 dereferenceable(8) %5)
  call void @_ZN7logging10LogMessageC1EPKciiPNSt7__cxx1112basic_stringIcSt11char_traitsIcESaIcEEE(ptr noundef nonnull align 8 dereferenceable(404) %6, ptr noundef @.str, i32 noundef 362, i32 noundef 0, ptr noundef %16)
  %17 = invoke noundef nonnull align 8 dereferenceable(8) ptr @_ZN7logging10LogMessage6streamEv(ptr noundef nonnull align 8 dereferenceable(404) %6)
          to label %18 unwind label %19

18:                                               ; preds = %15
  call void @_ZN7logging10LogMessageD1Ev(ptr noundef nonnull align 8 dereferenceable(404) %6) #11
  call void @llvm.lifetime.end.p0(i64 408, ptr %6) #11
  br label %23

19:                                               ; preds = %15
  %20 = landingpad { ptr, i32 }
          cleanup
  %21 = extractvalue { ptr, i32 } %20, 0
  store ptr %21, ptr %7, align 8
  %22 = extractvalue { ptr, i32 } %20, 1
  store i32 %22, ptr %8, align 4
  call void @_ZN7logging10LogMessageD1Ev(ptr noundef nonnull align 8 dereferenceable(404) %6) #11
  call void @llvm.lifetime.end.p0(i64 408, ptr %6) #11
  call void @llvm.lifetime.end.p0(i64 8, ptr %5) #11
  br label %68

23:                                               ; preds = %18, %14
  call void @llvm.lifetime.end.p0(i64 8, ptr %5) #11
  call void @llvm.lifetime.start.p0(i64 8, ptr %9) #11
  call void @_ZN7logging13CheckOpResultC2EPNSt7__cxx1112basic_stringIcSt11char_traitsIcESaIcEEE(ptr noundef nonnull align 8 dereferenceable(8) %9, ptr noundef null)
  %24 = call noundef zeroext i1 @_ZNK7logging13CheckOpResultcvbEv(ptr noundef nonnull align 8 dereferenceable(8) %9)
  br i1 %24, label %25, label %26

25:                                               ; preds = %23
  br label %34

26:                                               ; preds = %23
  call void @llvm.lifetime.start.p0(i64 408, ptr %10) #11
  %27 = call noundef ptr @_ZN7logging13CheckOpResult7messageB5cxx11Ev(ptr noundef nonnull align 8 dereferenceable(8) %9)
  call void @_ZN7logging10LogMessageC1EPKciiPNSt7__cxx1112basic_stringIcSt11char_traitsIcESaIcEEE(ptr noundef nonnull align 8 dereferenceable(404) %10, ptr noundef @.str, i32 noundef 363, i32 noundef 0, ptr noundef %27)
  %28 = invoke noundef nonnull align 8 dereferenceable(8) ptr @_ZN7logging10LogMessage6streamEv(ptr noundef nonnull align 8 dereferenceable(404) %10)
          to label %29 unwind label %30

29:                                               ; preds = %26
  call void @_ZN7logging10LogMessageD1Ev(ptr noundef nonnull align 8 dereferenceable(404) %10) #11
  call void @llvm.lifetime.end.p0(i64 408, ptr %10) #11
  br label %34

30:                                               ; preds = %26
  %31 = landingpad { ptr, i32 }
          cleanup
  %32 = extractvalue { ptr, i32 } %31, 0
  store ptr %32, ptr %7, align 8
  %33 = extractvalue { ptr, i32 } %31, 1
  store i32 %33, ptr %8, align 4
  call void @_ZN7logging10LogMessageD1Ev(ptr noundef nonnull align 8 dereferenceable(404) %10) #11
  call void @llvm.lifetime.end.p0(i64 408, ptr %10) #11
  call void @llvm.lifetime.end.p0(i64 8, ptr %9) #11
  br label %68

34:                                               ; preds = %29, %25
  call void @llvm.lifetime.end.p0(i64 8, ptr %9) #11
  %35 = getelementptr inbounds nuw %struct.timeval, ptr %4, i32 0, i32 1
  %36 = load i64, ptr %35, align 8, !tbaa !15
  %37 = icmp eq i64 %36, 0
  br i1 %37, label %38, label %43

38:                                               ; preds = %34
  %39 = getelementptr inbounds nuw %struct.timeval, ptr %4, i32 0, i32 0
  %40 = load i64, ptr %39, align 8, !tbaa !13
  %41 = icmp eq i64 %40, 0
  br i1 %41, label %42, label %43

42:                                               ; preds = %38
  call void @_ZN4base4TimeC2Ev(ptr noundef nonnull align 8 dereferenceable(8) %3)
  br label %64

43:                                               ; preds = %38, %34
  %44 = getelementptr inbounds nuw %struct.timeval, ptr %4, i32 0, i32 1
  %45 = load i64, ptr %44, align 8, !tbaa !15
  %46 = icmp eq i64 %45, 999999
  br i1 %46, label %47, label %56

47:                                               ; preds = %43
  %48 = getelementptr inbounds nuw %struct.timeval, ptr %4, i32 0, i32 0
  %49 = load i64, ptr %48, align 8, !tbaa !13
  %50 = call noundef i64 @_ZNSt14numeric_limitsIlE3maxEv() #11
  %51 = icmp eq i64 %49, %50
  br i1 %51, label %52, label %56

52:                                               ; preds = %47
  %53 = call i64 @_ZN4base13time_internal8TimeBaseINS_4TimeEE3MaxEv()
  %54 = getelementptr inbounds nuw %"class.base::Time", ptr %3, i32 0, i32 0
  %55 = getelementptr inbounds nuw %"class.base::time_internal::TimeBase", ptr %54, i32 0, i32 0
  store i64 %53, ptr %55, align 8
  br label %64

56:                                               ; preds = %47, %43
  %57 = getelementptr inbounds nuw %struct.timeval, ptr %4, i32 0, i32 0
  %58 = load i64, ptr %57, align 8, !tbaa !13
  %59 = mul nsw i64 %58, 1000000
  %60 = getelementptr inbounds nuw %struct.timeval, ptr %4, i32 0, i32 1
  %61 = load i64, ptr %60, align 8, !tbaa !15
  %62 = add nsw i64 %59, %61
  %63 = add nsw i64 %62, 11644473600000000
  call void @_ZN4base4TimeC2El(ptr noundef nonnull align 8 dereferenceable(8) %3, i64 noundef %63)
  br label %64

64:                                               ; preds = %56, %52, %42
  %65 = getelementptr inbounds nuw %"class.base::Time", ptr %3, i32 0, i32 0
  %66 = getelementptr inbounds nuw %"class.base::time_internal::TimeBase", ptr %65, i32 0, i32 0
  %67 = load i64, ptr %66, align 8
  ret i64 %67

68:                                               ; preds = %30, %19
  %69 = load ptr, ptr %7, align 8
  %70 = load i32, ptr %8, align 4
  %71 = insertvalue { ptr, i32 } poison, ptr %69, 0
  %72 = insertvalue { ptr, i32 } %71, i32 %70, 1
  resume { ptr, i32 } %72
}