; Function Attrs: mustprogress nofree norecurse nosync nounwind willreturn memory(none) uwtable
define range(i64 -9211727563254775808, -9223372036854775808) i64 @_ZN4base4Time11FromTimeValE7timeval(i64 %0, i64 %1) local_unnamed_addr #7 align 2 personality ptr @__gxx_personality_v0 {
  %3 = icmp eq i64 %1, 0
  %4 = icmp eq i64 %0, 0
  %or.cond = select i1 %3, i1 %4, i1 false
  br i1 %or.cond, label %12, label %5

5:                                                ; preds = %2
  %6 = icmp eq i64 %1, 999999
  %7 = icmp eq i64 %0, 9223372036854775807
  %or.cond12 = select i1 %6, i1 %7, i1 false
  br i1 %or.cond12, label %12, label %8

8:                                                ; preds = %5
  %9 = mul nsw i64 %0, 1000000
  %10 = add i64 %1, 11644473600000000
  %11 = add i64 %10, %9
  br label %12

12:                                               ; preds = %5, %2, %8
  %.sroa.011.0 = phi i64 [ %11, %8 ], [ 0, %2 ], [ 9223372036854775807, %5 ]
  ret i64 %.sroa.011.0
}